target datalayout = "e-m:e-p270:32:32-p271:32:32-p272:64:64-i64:64-i128:128-f80:128-n8:16:32:64-S128"
target triple = "x86_64-pc-linux-gnu"

%struct.stack_t = type { ptr, i32, i64 }

@rb_sigaltstack_size_value = internal global i32 0, align 4

; Function Attrs: nounwind sspstrong uwtable
define hidden ptr @rb_register_sigaltstack(ptr noundef %0) #1 {
  %2 = alloca ptr, align 8
  %3 = alloca %struct.stack_t, align 8
  %4 = alloca %struct.stack_t, align 8
  store ptr %0, ptr %2, align 8, !tbaa !61
  call void @llvm.lifetime.start.p0(i64 24, ptr %3) #22
  call void @llvm.lifetime.start.p0(i64 24, ptr %4) #22
  %5 = load i32, ptr @rb_sigaltstack_size_value, align 4, !tbaa !7
  %6 = sext i32 %5 to i64
  %7 = getelementptr inbounds nuw %struct.stack_t, ptr %3, i32 0, i32 2
  store i64 %6, ptr %7, align 8, !tbaa !62
  %8 = load ptr, ptr %2, align 8, !tbaa !61
  %9 = getelementptr inbounds nuw %struct.stack_t, ptr %3, i32 0, i32 0
  store ptr %8, ptr %9, align 8, !tbaa !64
  %10 = getelementptr inbounds nuw %struct.stack_t, ptr %3, i32 0, i32 1
  store i32 0, ptr %10, align 8, !tbaa !65
  %11 = call i32 @sigaltstack(ptr noundef %3, ptr noundef %4) #22
  %12 = getelementptr inbounds nuw %struct.stack_t, ptr %3, i32 0, i32 0
  %13 = load ptr, ptr %12, align 8, !tbaa !64
  call void @llvm.lifetime.end.p0(i64 24, ptr %4) #22
  call void @llvm.lifetime.end.p0(i64 24, ptr %3) #22
  ret ptr %13
}