; Function Attrs: nounwind sspstrong uwtable
define hidden ptr @rb_register_sigaltstack(ptr noundef %0) local_unnamed_addr #1 {
  %2 = alloca %struct.stack_t, align 8
  %3 = alloca %struct.stack_t, align 8
  call void @llvm.lifetime.start.p0(i64 24, ptr nonnull %2) #17
  call void @llvm.lifetime.start.p0(i64 24, ptr nonnull %3) #17
  %4 = load i32, ptr @rb_sigaltstack_size_value, align 4, !tbaa !19
  %5 = zext nneg i32 %4 to i64
  %6 = getelementptr inbounds nuw i8, ptr %2, i64 16
  store i64 %5, ptr %6, align 8, !tbaa !65
  store ptr %0, ptr %2, align 8, !tbaa !67
  %7 = getelementptr inbounds nuw i8, ptr %2, i64 8
  store i32 0, ptr %7, align 8, !tbaa !68
  %8 = call i32 @sigaltstack(ptr noundef nonnull %2, ptr noundef nonnull %3) #17
  %9 = load ptr, ptr %2, align 8, !tbaa !67
  call void @llvm.lifetime.end.p0(i64 24, ptr nonnull %3) #17
  call void @llvm.lifetime.end.p0(i64 24, ptr nonnull %2) #17
  ret ptr %9
}